; ModuleID = '45/422.c'
source_filename = "45/422.c"
target datalayout = "e-m:e-p270:32:32-p271:32:32-p272:64:64-i64:64-f80:128-n8:16:32:64-S128"
target triple = "x86_64-pc-linux-gnu"

@.str = private unnamed_addr constant [5 x i8] c"%s%s\00", align 1
@.str.1 = private unnamed_addr constant [3 x i8] c"%d\00", align 1

; Function Attrs: noinline nounwind uwtable
define dso_local i32 @main() #0 {
  %1 = alloca i32, align 4
  %2 = alloca [50 x i8], align 16
  %3 = alloca [50 x i8], align 16
  %4 = alloca i8*, align 8
  %5 = alloca i8*, align 8
  %6 = alloca i32, align 4
  %7 = alloca i32, align 4
  %8 = alloca i32, align 4
  %9 = alloca i32, align 4
  %10 = alloca i32, align 4
  %11 = alloca i32, align 4
  store i32 0, i32* %1, align 4
  store i32 0, i32* %11, align 4
  %12 = getelementptr inbounds [50 x i8], [50 x i8]* %2, i64 0, i64 0
  store i8* %12, i8** %4, align 8
  %13 = getelementptr inbounds [50 x i8], [50 x i8]* %3, i64 0, i64 0
  store i8* %13, i8** %5, align 8
  %14 = getelementptr inbounds [50 x i8], [50 x i8]* %2, i64 0, i64 0
  %15 = getelementptr inbounds [50 x i8], [50 x i8]* %3, i64 0, i64 0
  %16 = call i32 (i8*, ...) @__isoc99_scanf(i8* getelementptr inbounds ([5 x i8], [5 x i8]* @.str, i64 0, i64 0), i8* %14, i8* %15)
  %17 = getelementptr inbounds [50 x i8], [50 x i8]* %2, i64 0, i64 0
  %18 = call i64 @strlen(i8* %17) #3
  %19 = trunc i64 %18 to i32
  store i32 %19, i32* %9, align 4
  %20 = getelementptr inbounds [50 x i8], [50 x i8]* %3, i64 0, i64 0
  %21 = call i64 @strlen(i8* %20) #3
  %22 = trunc i64 %21 to i32
  store i32 %22, i32* %10, align 4
  store i32 0, i32* %6, align 4
  br label %23

23:                                               ; preds = %104, %37, %0
  %24 = load i32, i32* %6, align 4
  %25 = load i32, i32* %10, align 4
  %26 = icmp slt i32 %24, %25
  br i1 %26, label %27, label %107

27:                                               ; preds = %23
  %28 = load i8*, i8** %4, align 8
  %29 = load i8, i8* %28, align 1
  %30 = sext i8 %29 to i32
  %31 = load i32, i32* %6, align 4
  %32 = sext i32 %31 to i64
  %33 = getelementptr inbounds [50 x i8], [50 x i8]* %3, i64 0, i64 %32
  %34 = load i8, i8* %33, align 1
  %35 = sext i8 %34 to i32
  %36 = icmp ne i32 %30, %35
  br i1 %36, label %37, label %40

37:                                               ; preds = %27
  %38 = load i32, i32* %6, align 4
  %39 = add nsw i32 %38, 1
  store i32 %39, i32* %6, align 4
  br label %23

40:                                               ; preds = %27
  %41 = load i8*, i8** %4, align 8
  %42 = load i8, i8* %41, align 1
  %43 = sext i8 %42 to i32
  %44 = load i32, i32* %6, align 4
  %45 = sext i32 %44 to i64
  %46 = getelementptr inbounds [50 x i8], [50 x i8]* %3, i64 0, i64 %45
  %47 = load i8, i8* %46, align 1
  %48 = sext i8 %47 to i32
  %49 = icmp eq i32 %43, %48
  br i1 %49, label %50, label %103

50:                                               ; preds = %40
  %51 = getelementptr inbounds [50 x i8], [50 x i8]* %3, i64 0, i64 0
  %52 = load i32, i32* %6, align 4
  %53 = sext i32 %52 to i64
  %54 = getelementptr inbounds i8, i8* %51, i64 %53
  store i8* %54, i8** %5, align 8
  %55 = getelementptr inbounds [50 x i8], [50 x i8]* %2, i64 0, i64 0
  store i8* %55, i8** %4, align 8
  store i32 0, i32* %7, align 4
  br label %56

56:                                               ; preds = %95, %50
  %57 = load i32, i32* %7, align 4
  %58 = load i32, i32* %9, align 4
  %59 = icmp slt i32 %57, %58
  br i1 %59, label %60, label %96

60:                                               ; preds = %56
  %61 = load i8*, i8** %5, align 8
  %62 = load i8, i8* %61, align 1
  %63 = sext i8 %62 to i32
  %64 = load i8*, i8** %4, align 8
  %65 = load i8, i8* %64, align 1
  %66 = sext i8 %65 to i32
  %67 = icmp ne i32 %63, %66
  br i1 %67, label %68, label %77

68:                                               ; preds = %60
  %69 = load i32, i32* %11, align 4
  %70 = add nsw i32 %69, 0
  store i32 %70, i32* %11, align 4
  %71 = load i8*, i8** %4, align 8
  %72 = getelementptr inbounds i8, i8* %71, i32 1
  store i8* %72, i8** %4, align 8
  %73 = load i8*, i8** %5, align 8
  %74 = getelementptr inbounds i8, i8* %73, i32 1
  store i8* %74, i8** %5, align 8
  %75 = load i32, i32* %7, align 4
  %76 = add nsw i32 %75, 1
  store i32 %76, i32* %7, align 4
  br label %95

77:                                               ; preds = %60
  %78 = load i8*, i8** %5, align 8
  %79 = load i8, i8* %78, align 1
  %80 = sext i8 %79 to i32
  %81 = load i8*, i8** %4, align 8
  %82 = load i8, i8* %81, align 1
  %83 = sext i8 %82 to i32
  %84 = icmp eq i32 %80, %83
  br i1 %84, label %85, label %94

85:                                               ; preds = %77
  %86 = load i32, i32* %11, align 4
  %87 = add nsw i32 %86, 1
  store i32 %87, i32* %11, align 4
  %88 = load i8*, i8** %4, align 8
  %89 = getelementptr inbounds i8, i8* %88, i32 1
  store i8* %89, i8** %4, align 8
  %90 = load i8*, i8** %5, align 8
  %91 = getelementptr inbounds i8, i8* %90, i32 1
  store i8* %91, i8** %5, align 8
  %92 = load i32, i32* %7, align 4
  %93 = add nsw i32 %92, 1
  store i32 %93, i32* %7, align 4
  br label %94

94:                                               ; preds = %85, %77
  br label %95

95:                                               ; preds = %94, %68
  br label %56

96:                                               ; preds = %56
  %97 = load i32, i32* %11, align 4
  %98 = load i32, i32* %9, align 4
  %99 = icmp eq i32 %97, %98
  br i1 %99, label %100, label %102

100:                                              ; preds = %96
  %101 = load i32, i32* %6, align 4
  store i32 %101, i32* %8, align 4
  br label %107

102:                                              ; preds = %96
  br label %103

103:                                              ; preds = %102, %40
  br label %104

104:                                              ; preds = %103
  %105 = load i32, i32* %6, align 4
  %106 = add nsw i32 %105, 1
  store i32 %106, i32* %6, align 4
  br label %23

107:                                              ; preds = %100, %23
  %108 = load i32, i32* %8, align 4
  %109 = call i32 (i8*, ...) @printf(i8* getelementptr inbounds ([3 x i8], [3 x i8]* @.str.1, i64 0, i64 0), i32 %108)
  ret i32 0
}

declare dso_local i32 @__isoc99_scanf(i8*, ...) #1

; Function Attrs: nounwind readonly
declare dso_local i64 @strlen(i8*) #2

declare dso_local i32 @printf(i8*, ...) #1


!llvm.module.flags = !{!0}
!llvm.ident = !{!1}

!0 = !{i32 1, !"wchar_size", i32 4}
!1 = !{!"clang version 10.0.0-4ubuntu1 "}
